; Function Attrs: nounwind uwtable
define hidden ptr @_PyAST_Nonlocal(ptr noundef %0, i32 noundef %1, i32 noundef %2, i32 noundef %3, i32 noundef %4, ptr noundef %5) local_unnamed_addr #0 {
  %7 = tail call ptr @_PyArena_Malloc(ptr noundef %5, i64 noundef 80) #8
  %.not = icmp eq ptr %7, null
  br i1 %.not, label %14, label %8

8:                                                ; preds = %6
  store i32 24, ptr %7, align 8, !tbaa !20
  %9 = getelementptr inbounds nuw i8, ptr %7, i64 8
  store ptr %0, ptr %9, align 8, !tbaa !9
  %10 = getelementptr inbounds nuw i8, ptr %7, i64 64
  store i32 %1, ptr %10, align 8, !tbaa !22
  %11 = getelementptr inbounds nuw i8, ptr %7, i64 68
  store i32 %2, ptr %11, align 4, !tbaa !23
  %12 = getelementptr inbounds nuw i8, ptr %7, i64 72
  store i32 %3, ptr %12, align 8, !tbaa !24
  %13 = getelementptr inbounds nuw i8, ptr %7, i64 76
  store i32 %4, ptr %13, align 4, !tbaa !25
  br label %14

14:                                               ; preds = %6, %8
  ret ptr %7
}